target datalayout = "e-m:e-p270:32:32-p271:32:32-p272:64:64-i64:64-i128:128-f80:128-n8:16:32:64-S128"
target triple = "x86_64-pc-linux-gnu"

%struct._object = type { %union.anon, ptr }
%union.anon = type { i64 }
%struct._typeobject = type { %struct.PyVarObject, ptr, i64, i64, ptr, i64, ptr, ptr, ptr, ptr, ptr, ptr, ptr, ptr, ptr, ptr, ptr, ptr, ptr, i64, ptr, ptr, ptr, ptr, i64, ptr, ptr, ptr, ptr, ptr, ptr, ptr, ptr, ptr, i64, ptr, ptr, ptr, ptr, ptr, ptr, ptr, ptr, ptr, ptr, ptr, i32, ptr, ptr, i8, i16 }
%struct.PyVarObject = type { %struct._object, i64 }
%struct.xmlparseobject = type { %struct._object, ptr, i32, i32, i32, i32, ptr, i32, i32, i8, ptr, ptr }
%struct.Py_buffer = type { ptr, ptr, i64, i64, i32, i32, ptr, ptr, ptr, ptr, ptr }

@.str.109 = private unnamed_addr constant [6 x i8] c"utf-8\00", align 1

; Function Attrs: nounwind uwtable
define internal i32 @flush_character_buffer(ptr noundef %0) #0 {
  %2 = alloca i32, align 4
  %3 = alloca ptr, align 8
  %4 = alloca i32, align 4
  %5 = alloca i32, align 4
  store ptr %0, ptr %3, align 8, !tbaa !8
  call void @llvm.lifetime.start.p0(i64 4, ptr %4) #7
  %6 = load ptr, ptr %3, align 8, !tbaa !8
  %7 = getelementptr inbounds nuw %struct.xmlparseobject, ptr %6, i32 0, i32 6
  %8 = load ptr, ptr %7, align 8, !tbaa !35
  %9 = icmp eq ptr %8, null
  br i1 %9, label %15, label %10

10:                                               ; preds = %1
  %11 = load ptr, ptr %3, align 8, !tbaa !8
  %12 = getelementptr inbounds nuw %struct.xmlparseobject, ptr %11, i32 0, i32 8
  %13 = load i32, ptr %12, align 4, !tbaa !40
  %14 = icmp eq i32 %13, 0
  br i1 %14, label %15, label %16

15:                                               ; preds = %10, %1
  store i32 0, ptr %2, align 4
  store i32 1, ptr %5, align 4
  br label %28

16:                                               ; preds = %10
  %17 = load ptr, ptr %3, align 8, !tbaa !8
  %18 = load ptr, ptr %3, align 8, !tbaa !8
  %19 = getelementptr inbounds nuw %struct.xmlparseobject, ptr %18, i32 0, i32 6
  %20 = load ptr, ptr %19, align 8, !tbaa !35
  %21 = load ptr, ptr %3, align 8, !tbaa !8
  %22 = getelementptr inbounds nuw %struct.xmlparseobject, ptr %21, i32 0, i32 8
  %23 = load i32, ptr %22, align 4, !tbaa !40
  %24 = call i32 @call_character_handler(ptr noundef %17, ptr noundef %20, i32 noundef %23)
  store i32 %24, ptr %4, align 4, !tbaa !12
  %25 = load ptr, ptr %3, align 8, !tbaa !8
  %26 = getelementptr inbounds nuw %struct.xmlparseobject, ptr %25, i32 0, i32 8
  store i32 0, ptr %26, align 4, !tbaa !40
  %27 = load i32, ptr %4, align 4, !tbaa !12
  store i32 %27, ptr %2, align 4
  store i32 1, ptr %5, align 4
  br label %28

28:                                               ; preds = %16, %15
  call void @llvm.lifetime.end.p0(i64 4, ptr %4) #7
  %29 = load i32, ptr %2, align 4
  ret i32 %29
}

; Function Attrs: nounwind uwtable
define internal ptr @get_parse_result(ptr noundef %0, ptr noundef %1, i32 noundef %2) #0 {
  %4 = alloca ptr, align 8
  %5 = alloca ptr, align 8
  %6 = alloca ptr, align 8
  %7 = alloca i32, align 4
  store ptr %0, ptr %5, align 8, !tbaa !8
  store ptr %1, ptr %6, align 8, !tbaa !8
  store i32 %2, ptr %7, align 4, !tbaa !12
  %8 = call ptr @PyErr_Occurred()
  %9 = icmp ne ptr %8, null
  br i1 %9, label %10, label %11

10:                                               ; preds = %3
  store ptr null, ptr %4, align 8
  br label %31

11:                                               ; preds = %3
  %12 = load i32, ptr %7, align 4, !tbaa !12
  %13 = icmp eq i32 %12, 0
  br i1 %13, label %14, label %22

14:                                               ; preds = %11
  %15 = load ptr, ptr %5, align 8, !tbaa !8
  %16 = load ptr, ptr %6, align 8, !tbaa !8
  %17 = load ptr, ptr %6, align 8, !tbaa !8
  %18 = getelementptr inbounds nuw %struct.xmlparseobject, ptr %17, i32 0, i32 1
  %19 = load ptr, ptr %18, align 8, !tbaa !48
  %20 = call i32 @PyExpat_XML_GetErrorCode(ptr noundef %19)
  %21 = call ptr @set_error(ptr noundef %15, ptr noundef %16, i32 noundef %20)
  store ptr %21, ptr %4, align 8
  br label %31

22:                                               ; preds = %11
  %23 = load ptr, ptr %6, align 8, !tbaa !8
  %24 = call i32 @flush_character_buffer(ptr noundef %23)
  %25 = icmp slt i32 %24, 0
  br i1 %25, label %26, label %27

26:                                               ; preds = %22
  store ptr null, ptr %4, align 8
  br label %31

27:                                               ; preds = %22
  %28 = load i32, ptr %7, align 4, !tbaa !12
  %29 = sext i32 %28 to i64
  %30 = call ptr @PyLong_FromLong(i64 noundef %29)
  store ptr %30, ptr %4, align 8
  br label %31

31:                                               ; preds = %27, %26, %14, %10
  %32 = load ptr, ptr %4, align 8
  ret ptr %32
}

; Function Attrs: inlinehint nounwind uwtable
define internal i32 @PyType_HasFeature(ptr noundef %0, i64 noundef %1) #3 {
  %3 = alloca ptr, align 8
  %4 = alloca i64, align 8
  %5 = alloca i64, align 8
  store ptr %0, ptr %3, align 8, !tbaa !18
  store i64 %1, ptr %4, align 8, !tbaa !21
  call void @llvm.lifetime.start.p0(i64 8, ptr %5) #7
  %6 = load ptr, ptr %3, align 8, !tbaa !18
  %7 = getelementptr inbounds nuw %struct._typeobject, ptr %6, i32 0, i32 19
  %8 = load i64, ptr %7, align 8, !tbaa !25
  store i64 %8, ptr %5, align 8, !tbaa !21
  %9 = load i64, ptr %5, align 8, !tbaa !21
  %10 = load i64, ptr %4, align 8, !tbaa !21
  %11 = and i64 %9, %10
  %12 = icmp ne i64 %11, 0
  %13 = zext i1 %12 to i32
  call void @llvm.lifetime.end.p0(i64 8, ptr %5) #7
  ret i32 %13
}

; Function Attrs: inlinehint nounwind uwtable
define internal ptr @_Py_TYPE(ptr noundef %0) #3 {
  %2 = alloca ptr, align 8
  store ptr %0, ptr %2, align 8, !tbaa !3
  %3 = load ptr, ptr %2, align 8, !tbaa !3
  %4 = getelementptr inbounds nuw %struct._object, ptr %3, i32 0, i32 1
  %5 = load ptr, ptr %4, align 8, !tbaa !33
  ret ptr %5
}

; Function Attrs: nounwind uwtable
define internal ptr @pyexpat_xmlparser_Parse_impl(ptr noundef %0, ptr noundef %1, ptr noundef %2, i32 noundef %3) #0 {
  %5 = alloca ptr, align 8
  %6 = alloca ptr, align 8
  %7 = alloca ptr, align 8
  %8 = alloca ptr, align 8
  %9 = alloca i32, align 4
  %10 = alloca ptr, align 8
  %11 = alloca i64, align 8
  %12 = alloca %struct.Py_buffer, align 8
  %13 = alloca i32, align 4
  %14 = alloca ptr, align 8
  %15 = alloca i32, align 4
  store ptr %0, ptr %6, align 8, !tbaa !8
  store ptr %1, ptr %7, align 8, !tbaa !18
  store ptr %2, ptr %8, align 8, !tbaa !3
  store i32 %3, ptr %9, align 4, !tbaa !12
  call void @llvm.lifetime.start.p0(i64 8, ptr %10) #7
  call void @llvm.lifetime.start.p0(i64 8, ptr %11) #7
  call void @llvm.lifetime.start.p0(i64 80, ptr %12) #7
  call void @llvm.lifetime.start.p0(i64 4, ptr %13) #7
  call void @llvm.lifetime.start.p0(i64 8, ptr %14) #7
  %16 = load ptr, ptr %7, align 8, !tbaa !18
  %17 = call ptr @PyType_GetModuleState(ptr noundef %16)
  store ptr %17, ptr %14, align 8, !tbaa !8
  %18 = load ptr, ptr %8, align 8, !tbaa !3
  %19 = call ptr @_Py_TYPE(ptr noundef %18)
  %20 = call i32 @PyType_HasFeature(ptr noundef %19, i64 noundef 268435456)
  %21 = icmp ne i32 %20, 0
  br i1 %21, label %22, label %34

22:                                               ; preds = %4
  %23 = getelementptr inbounds nuw %struct.Py_buffer, ptr %12, i32 0, i32 0
  store ptr null, ptr %23, align 8, !tbaa !133
  %24 = load ptr, ptr %8, align 8, !tbaa !3
  %25 = call ptr @PyUnicode_AsUTF8AndSize(ptr noundef %24, ptr noundef %11)
  store ptr %25, ptr %10, align 8, !tbaa !23
  %26 = load ptr, ptr %10, align 8, !tbaa !23
  %27 = icmp eq ptr %26, null
  br i1 %27, label %28, label %29

28:                                               ; preds = %22
  store ptr null, ptr %5, align 8
  store i32 1, ptr %15, align 4
  br label %81

29:                                               ; preds = %22
  %30 = load ptr, ptr %6, align 8, !tbaa !8
  %31 = getelementptr inbounds nuw %struct.xmlparseobject, ptr %30, i32 0, i32 1
  %32 = load ptr, ptr %31, align 8, !tbaa !48
  %33 = call i32 @PyExpat_XML_SetEncoding(ptr noundef %32, ptr noundef @.str.109)
  br label %44

34:                                               ; preds = %4
  %35 = load ptr, ptr %8, align 8, !tbaa !3
  %36 = call i32 @PyObject_GetBuffer(ptr noundef %35, ptr noundef %12, i32 noundef 0)
  %37 = icmp slt i32 %36, 0
  br i1 %37, label %38, label %39

38:                                               ; preds = %34
  store ptr null, ptr %5, align 8
  store i32 1, ptr %15, align 4
  br label %81

39:                                               ; preds = %34
  %40 = getelementptr inbounds nuw %struct.Py_buffer, ptr %12, i32 0, i32 0
  %41 = load ptr, ptr %40, align 8, !tbaa !133
  store ptr %41, ptr %10, align 8, !tbaa !23
  %42 = getelementptr inbounds nuw %struct.Py_buffer, ptr %12, i32 0, i32 2
  %43 = load i64, ptr %42, align 8, !tbaa !136
  store i64 %43, ptr %11, align 8, !tbaa !21
  br label %44

44:                                               ; preds = %39, %29
  br label %45

45:                                               ; preds = %57, %44
  %46 = load i64, ptr %11, align 8, !tbaa !21
  %47 = icmp sgt i64 %46, 1048576
  br i1 %47, label %48, label %62

48:                                               ; preds = %45
  %49 = load ptr, ptr %6, align 8, !tbaa !8
  %50 = getelementptr inbounds nuw %struct.xmlparseobject, ptr %49, i32 0, i32 1
  %51 = load ptr, ptr %50, align 8, !tbaa !48
  %52 = load ptr, ptr %10, align 8, !tbaa !23
  %53 = call i32 @PyExpat_XML_Parse(ptr noundef %51, ptr noundef %52, i32 noundef 1048576, i32 noundef 0)
  store i32 %53, ptr %13, align 4, !tbaa !12
  %54 = load i32, ptr %13, align 4, !tbaa !12
  %55 = icmp ne i32 %54, 0
  br i1 %55, label %57, label %56

56:                                               ; preds = %48
  br label %71

57:                                               ; preds = %48
  %58 = load ptr, ptr %10, align 8, !tbaa !23
  %59 = getelementptr i8, ptr %58, i64 1048576
  store ptr %59, ptr %10, align 8, !tbaa !23
  %60 = load i64, ptr %11, align 8, !tbaa !21
  %61 = sub i64 %60, 1048576
  store i64 %61, ptr %11, align 8, !tbaa !21
  br label %45, !llvm.loop !137

62:                                               ; preds = %45
  %63 = load ptr, ptr %6, align 8, !tbaa !8
  %64 = getelementptr inbounds nuw %struct.xmlparseobject, ptr %63, i32 0, i32 1
  %65 = load ptr, ptr %64, align 8, !tbaa !48
  %66 = load ptr, ptr %10, align 8, !tbaa !23
  %67 = load i64, ptr %11, align 8, !tbaa !21
  %68 = trunc i64 %67 to i32
  %69 = load i32, ptr %9, align 4, !tbaa !12
  %70 = call i32 @PyExpat_XML_Parse(ptr noundef %65, ptr noundef %66, i32 noundef %68, i32 noundef %69)
  store i32 %70, ptr %13, align 4, !tbaa !12
  br label %71

71:                                               ; preds = %62, %56
  %72 = getelementptr inbounds nuw %struct.Py_buffer, ptr %12, i32 0, i32 0
  %73 = load ptr, ptr %72, align 8, !tbaa !133
  %74 = icmp ne ptr %73, null
  br i1 %74, label %75, label %76

75:                                               ; preds = %71
  call void @PyBuffer_Release(ptr noundef %12)
  br label %76

76:                                               ; preds = %75, %71
  %77 = load ptr, ptr %14, align 8, !tbaa !8
  %78 = load ptr, ptr %6, align 8, !tbaa !8
  %79 = load i32, ptr %13, align 4, !tbaa !12
  %80 = call ptr @get_parse_result(ptr noundef %77, ptr noundef %78, i32 noundef %79)
  store ptr %80, ptr %5, align 8
  store i32 1, ptr %15, align 4
  br label %81

81:                                               ; preds = %76, %38, %28
  call void @llvm.lifetime.end.p0(i64 8, ptr %14) #7
  call void @llvm.lifetime.end.p0(i64 4, ptr %13) #7
  call void @llvm.lifetime.end.p0(i64 80, ptr %12) #7
  call void @llvm.lifetime.end.p0(i64 8, ptr %11) #7
  call void @llvm.lifetime.end.p0(i64 8, ptr %10) #7
  %82 = load ptr, ptr %5, align 8
  ret ptr %82
}

; Function Attrs: nounwind uwtable
define internal ptr @pyexpat_xmlparser_Parse(ptr noundef %0, ptr noundef %1, ptr noundef %2, i64 noundef %3, ptr noundef %4) #0 {
  %6 = alloca ptr, align 8
  %7 = alloca ptr, align 8
  %8 = alloca ptr, align 8
  %9 = alloca i64, align 8
  %10 = alloca ptr, align 8
  %11 = alloca ptr, align 8
  %12 = alloca [2 x ptr], align 16
  %13 = alloca ptr, align 8
  %14 = alloca i32, align 4
  store ptr %0, ptr %6, align 8, !tbaa !3
  store ptr %1, ptr %7, align 8, !tbaa !18
  store ptr %2, ptr %8, align 8, !tbaa !19
  store i64 %3, ptr %9, align 8, !tbaa !21
  store ptr %4, ptr %10, align 8, !tbaa !3
  call void @llvm.lifetime.start.p0(i64 8, ptr %11) #7
  store ptr null, ptr %11, align 8, !tbaa !3
  call void @llvm.lifetime.start.p0(i64 16, ptr %12) #7
  call void @llvm.lifetime.start.p0(i64 8, ptr %13) #7
  call void @llvm.lifetime.start.p0(i64 4, ptr %14) #7
  store i32 0, ptr %14, align 4, !tbaa !12
  %15 = load ptr, ptr %10, align 8, !tbaa !3
  %16 = icmp eq ptr %15, null
  br i1 %16, label %17, label %28

17:                                               ; preds = %5
  %18 = load i64, ptr %9, align 8, !tbaa !21
  %19 = icmp sle i64 1, %18
  br i1 %19, label %20, label %28

20:                                               ; preds = %17
  %21 = load i64, ptr %9, align 8, !tbaa !21
  %22 = icmp sle i64 %21, 2
  br i1 %22, label %23, label %28

23:                                               ; preds = %20
  %24 = load ptr, ptr %8, align 8, !tbaa !19
  %25 = icmp ne ptr %24, null
  br i1 %25, label %26, label %28

26:                                               ; preds = %23
  %27 = load ptr, ptr %8, align 8, !tbaa !19
  br label %34

28:                                               ; preds = %23, %20, %17, %5
  %29 = load ptr, ptr %8, align 8, !tbaa !19
  %30 = load i64, ptr %9, align 8, !tbaa !21
  %31 = load ptr, ptr %10, align 8, !tbaa !3
  %32 = getelementptr inbounds [2 x ptr], ptr %12, i64 0, i64 0
  %33 = call ptr @_PyArg_UnpackKeywords(ptr noundef %29, i64 noundef %30, ptr noundef null, ptr noundef %31, ptr noundef @pyexpat_xmlparser_Parse._parser, i32 noundef 1, i32 noundef 2, i32 noundef 0, i32 noundef 0, ptr noundef %32)
  br label %34

34:                                               ; preds = %28, %26
  %35 = phi ptr [ %27, %26 ], [ %33, %28 ]
  store ptr %35, ptr %8, align 8, !tbaa !19
  %36 = load ptr, ptr %8, align 8, !tbaa !19
  %37 = icmp ne ptr %36, null
  br i1 %37, label %39, label %38

38:                                               ; preds = %34
  br label %61

39:                                               ; preds = %34
  %40 = load ptr, ptr %8, align 8, !tbaa !19
  %41 = getelementptr ptr, ptr %40, i64 0
  %42 = load ptr, ptr %41, align 8, !tbaa !3
  store ptr %42, ptr %13, align 8, !tbaa !3
  %43 = load i64, ptr %9, align 8, !tbaa !21
  %44 = icmp slt i64 %43, 2
  br i1 %44, label %45, label %46

45:                                               ; preds = %39
  br label %55

46:                                               ; preds = %39
  %47 = load ptr, ptr %8, align 8, !tbaa !19
  %48 = getelementptr ptr, ptr %47, i64 1
  %49 = load ptr, ptr %48, align 8, !tbaa !3
  %50 = call i32 @PyObject_IsTrue(ptr noundef %49)
  store i32 %50, ptr %14, align 4, !tbaa !12
  %51 = load i32, ptr %14, align 4, !tbaa !12
  %52 = icmp slt i32 %51, 0
  br i1 %52, label %53, label %54

53:                                               ; preds = %46
  br label %61

54:                                               ; preds = %46
  br label %55

55:                                               ; preds = %54, %45
  %56 = load ptr, ptr %6, align 8, !tbaa !3
  %57 = load ptr, ptr %7, align 8, !tbaa !18
  %58 = load ptr, ptr %13, align 8, !tbaa !3
  %59 = load i32, ptr %14, align 4, !tbaa !12
  %60 = call ptr @pyexpat_xmlparser_Parse_impl(ptr noundef %56, ptr noundef %57, ptr noundef %58, i32 noundef %59)
  store ptr %60, ptr %11, align 8, !tbaa !3
  br label %61

61:                                               ; preds = %55, %53, %38
  %62 = load ptr, ptr %11, align 8, !tbaa !3
  call void @llvm.lifetime.end.p0(i64 4, ptr %14) #7
  call void @llvm.lifetime.end.p0(i64 8, ptr %13) #7
  call void @llvm.lifetime.end.p0(i64 16, ptr %12) #7
  call void @llvm.lifetime.end.p0(i64 8, ptr %11) #7
  ret ptr %62
}