; Function Attrs: nounwind uwtable
define internal ptr @pyexpat_xmlparser_Parse(ptr noundef captures(none) %0, ptr noundef %1, ptr noundef %2, i64 noundef %3, ptr noundef %4) #0 {
  %6 = alloca i64, align 8
  %7 = alloca %struct.Py_buffer, align 8
  %8 = alloca [2 x ptr], align 16
  call void @llvm.lifetime.start.p0(i64 16, ptr nonnull %8) #8
  %9 = icmp eq ptr %4, null
  %10 = add i64 %3, -1
  %11 = icmp ult i64 %10, 2
  %or.cond3 = and i1 %9, %11
  %12 = icmp ne ptr %2, null
  %or.cond5 = and i1 %12, %or.cond3
  br i1 %or.cond5, label %.thread, label %13

13:                                               ; preds = %5
  %14 = call ptr @_PyArg_UnpackKeywords(ptr noundef %2, i64 noundef %3, ptr noundef null, ptr noundef %4, ptr noundef nonnull @pyexpat_xmlparser_Parse._parser, i32 noundef 1, i32 noundef 2, i32 noundef 0, i32 noundef 0, ptr noundef nonnull %8) #8
  %.not = icmp eq ptr %14, null
  br i1 %.not, label %79, label %.thread

.thread:                                          ; preds = %5, %13
  %15 = phi ptr [ %14, %13 ], [ %2, %5 ]
  %16 = load ptr, ptr %15, align 8, !tbaa !14
  %17 = icmp slt i64 %3, 2
  br i1 %17, label %23, label %18

18:                                               ; preds = %.thread
  %19 = getelementptr i8, ptr %15, i64 8
  %20 = load ptr, ptr %19, align 8, !tbaa !14
  %21 = call i32 @PyObject_IsTrue(ptr noundef %20) #8
  %22 = icmp slt i32 %21, 0
  br i1 %22, label %79, label %23

23:                                               ; preds = %18, %.thread
  %.0 = phi i32 [ 0, %.thread ], [ %21, %18 ]
  call void @llvm.lifetime.start.p0(i64 8, ptr nonnull %6) #8
  call void @llvm.lifetime.start.p0(i64 80, ptr nonnull %7) #8
  %24 = call ptr @PyType_GetModuleState(ptr noundef %1) #8
  %25 = getelementptr i8, ptr %16, i64 8
  %.val.i = load ptr, ptr %25, align 8, !tbaa !19
  %26 = getelementptr i8, ptr %.val.i, i64 168
  %.val23.i = load i64, ptr %26, align 8, !tbaa !20
  %27 = and i64 %.val23.i, 268435456
  %.not.i = icmp eq i64 %27, 0
  br i1 %.not.i, label %35, label %28

28:                                               ; preds = %23
  store ptr null, ptr %7, align 8, !tbaa !114
  %29 = call ptr @PyUnicode_AsUTF8AndSize(ptr noundef nonnull %16, ptr noundef nonnull %6) #8
  %30 = icmp eq ptr %29, null
  br i1 %30, label %pyexpat_xmlparser_Parse_impl.exit, label %31

31:                                               ; preds = %28
  %32 = getelementptr inbounds nuw i8, ptr %0, i64 16
  %33 = load ptr, ptr %32, align 8, !tbaa !39
  %34 = call i32 @PyExpat_XML_SetEncoding(ptr noundef %33, ptr noundef nonnull @.str.109) #8
  %.pr.pre.i = load i64, ptr %6, align 8, !tbaa !28
  br label %42

35:                                               ; preds = %23
  %36 = call i32 @PyObject_GetBuffer(ptr noundef nonnull %16, ptr noundef nonnull %7, i32 noundef 0) #8
  %37 = icmp slt i32 %36, 0
  br i1 %37, label %pyexpat_xmlparser_Parse_impl.exit, label %38

38:                                               ; preds = %35
  %39 = load ptr, ptr %7, align 8, !tbaa !114
  %40 = getelementptr inbounds nuw i8, ptr %7, i64 16
  %41 = load i64, ptr %40, align 8, !tbaa !117
  store i64 %41, ptr %6, align 8, !tbaa !28
  br label %42

42:                                               ; preds = %38, %31
  %.pr.i = phi i64 [ %.pr.pre.i, %31 ], [ %41, %38 ]
  %.017.i = phi ptr [ %29, %31 ], [ %39, %38 ]
  %43 = icmp sgt i64 %.pr.i, 1048576
  br i1 %43, label %.lr.ph.i, label %._crit_edge.i

.lr.ph.i:                                         ; preds = %42
  %44 = getelementptr inbounds nuw i8, ptr %0, i64 16
  br label %45

45:                                               ; preds = %48, %.lr.ph.i
  %.126.i = phi ptr [ %.017.i, %.lr.ph.i ], [ %49, %48 ]
  %46 = load ptr, ptr %44, align 8, !tbaa !39
  %47 = call i32 @PyExpat_XML_Parse(ptr noundef %46, ptr noundef %.126.i, i32 noundef 1048576, i32 noundef 0) #8
  %.not21.i = icmp eq i32 %47, 0
  br i1 %.not21.i, label %.loopexit.i, label %48

48:                                               ; preds = %45
  %49 = getelementptr i8, ptr %.126.i, i64 1048576
  %50 = load i64, ptr %6, align 8, !tbaa !28
  %51 = add i64 %50, -1048576
  store i64 %51, ptr %6, align 8, !tbaa !28
  %52 = icmp sgt i64 %51, 1048576
  br i1 %52, label %45, label %._crit_edge.i, !llvm.loop !118

._crit_edge.i:                                    ; preds = %48, %42
  %.lcssa.i = phi i64 [ %.pr.i, %42 ], [ %51, %48 ]
  %.1.lcssa.i = phi ptr [ %.017.i, %42 ], [ %49, %48 ]
  %53 = getelementptr inbounds nuw i8, ptr %0, i64 16
  %54 = load ptr, ptr %53, align 8, !tbaa !39
  %55 = trunc i64 %.lcssa.i to i32
  %56 = call i32 @PyExpat_XML_Parse(ptr noundef %54, ptr noundef %.1.lcssa.i, i32 noundef %55, i32 noundef range(i32 0, -2147483648) %.0) #8
  br label %.loopexit.i

.loopexit.i:                                      ; preds = %45, %._crit_edge.i
  %.016.i = phi i32 [ %56, %._crit_edge.i ], [ 0, %45 ]
  %57 = load ptr, ptr %7, align 8, !tbaa !114
  %.not22.i = icmp eq ptr %57, null
  br i1 %.not22.i, label %59, label %58

58:                                               ; preds = %.loopexit.i
  call void @PyBuffer_Release(ptr noundef nonnull %7) #8
  br label %59

59:                                               ; preds = %58, %.loopexit.i
  %60 = call ptr @PyErr_Occurred() #8
  %.not.i.i = icmp eq ptr %60, null
  br i1 %.not.i.i, label %61, label %pyexpat_xmlparser_Parse_impl.exit

61:                                               ; preds = %59
  %62 = icmp eq i32 %.016.i, 0
  br i1 %62, label %63, label %67

63:                                               ; preds = %61
  %64 = getelementptr inbounds nuw i8, ptr %0, i64 16
  %65 = load ptr, ptr %64, align 8, !tbaa !39
  %66 = call i32 @PyExpat_XML_GetErrorCode(ptr noundef %65) #8
  %.val.i.i = load ptr, ptr %64, align 8, !tbaa !39
  call fastcc void @set_error(ptr noundef readonly %24, ptr %.val.i.i, i32 noundef %66)
  br label %pyexpat_xmlparser_Parse_impl.exit

67:                                               ; preds = %61
  %68 = getelementptr inbounds nuw i8, ptr %0, i64 40
  %69 = load ptr, ptr %68, align 8, !tbaa !29
  %70 = icmp eq ptr %69, null
  br i1 %70, label %flush_character_buffer.exit.thread.i.i, label %71

71:                                               ; preds = %67
  %72 = getelementptr inbounds nuw i8, ptr %0, i64 52
  %73 = load i32, ptr %72, align 4, !tbaa !35
  %74 = icmp eq i32 %73, 0
  br i1 %74, label %flush_character_buffer.exit.thread.i.i, label %flush_character_buffer.exit.i.i

flush_character_buffer.exit.i.i:                  ; preds = %71
  %75 = call fastcc i32 @call_character_handler(ptr noundef nonnull %0, ptr noundef nonnull %69, i32 noundef %73)
  store i32 0, ptr %72, align 4, !tbaa !35
  %76 = icmp slt i32 %75, 0
  br i1 %76, label %pyexpat_xmlparser_Parse_impl.exit, label %flush_character_buffer.exit.thread.i.i

flush_character_buffer.exit.thread.i.i:           ; preds = %flush_character_buffer.exit.i.i, %71, %67
  %77 = sext i32 %.016.i to i64
  %78 = call ptr @PyLong_FromLong(i64 noundef %77) #8
  br label %pyexpat_xmlparser_Parse_impl.exit

pyexpat_xmlparser_Parse_impl.exit:                ; preds = %28, %35, %59, %63, %flush_character_buffer.exit.i.i, %flush_character_buffer.exit.thread.i.i
  %.0.i = phi ptr [ null, %28 ], [ null, %35 ], [ null, %63 ], [ %78, %flush_character_buffer.exit.thread.i.i ], [ null, %59 ], [ null, %flush_character_buffer.exit.i.i ]
  call void @llvm.lifetime.end.p0(i64 80, ptr nonnull %7) #8
  call void @llvm.lifetime.end.p0(i64 8, ptr nonnull %6) #8
  br label %79

79:                                               ; preds = %18, %13, %pyexpat_xmlparser_Parse_impl.exit
  %.022 = phi ptr [ %.0.i, %pyexpat_xmlparser_Parse_impl.exit ], [ null, %18 ], [ null, %13 ]
  call void @llvm.lifetime.end.p0(i64 16, ptr nonnull %8) #8
  ret ptr %.022
}